target datalayout = "e-m:e-p270:32:32-p271:32:32-p272:64:64-i64:64-i128:128-f80:128-n8:16:32:64-S128"
target triple = "x86_64-pc-linux-gnu"

%struct.slurm_conf_t = type { i64, ptr, i16, ptr, ptr, ptr, ptr, ptr, i16, ptr, ptr, ptr, ptr, ptr, ptr, ptr, i16, ptr, ptr, ptr, ptr, i16, ptr, ptr, ptr, i64, ptr, ptr, ptr, ptr, i16, ptr, ptr, i16, i32, ptr, i32, ptr, i32, i32, ptr, ptr, i64, i64, ptr, i16, i16, ptr, i32, i32, ptr, i32, ptr, i32, i16, i16, i16, ptr, i16, i16, ptr, ptr, i32, i16, i16, ptr, i32, i16, ptr, ptr, ptr, ptr, i16, ptr, ptr, ptr, ptr, i32, ptr, ptr, ptr, ptr, i16, i16, ptr, i32, i32, i32, i16, i16, ptr, ptr, i16, ptr, ptr, i32, i32, i32, i32, i32, i64, i32, i32, i16, ptr, ptr, i32, ptr, ptr, ptr, i16, i32, ptr, ptr, i16, ptr, ptr, i32, i16, ptr, ptr, ptr, ptr, i32, i32, i16, i16, i32, ptr, i16, ptr, i32, i32, i32, i32, i32, i32, ptr, i16, ptr, ptr, i32, i16, ptr, i32, i16, i16, ptr, ptr, ptr, i16, ptr, ptr, ptr, ptr, i16, i16, ptr, i16, ptr, i16, ptr, i16, ptr, i16, ptr, ptr, ptr, ptr, i16, ptr, ptr, ptr, i32, ptr, i32, ptr, ptr, i16, ptr, ptr, i32, i16, ptr, ptr, i16, i16, ptr, i16, ptr, ptr, ptr, i32, ptr, i16, i16, ptr, ptr, ptr, ptr, ptr, ptr, ptr, ptr, i16, i32, i16, ptr, ptr, ptr, ptr, i32, ptr, ptr, ptr, i16, ptr, ptr, ptr, i16, ptr, i16, ptr, i16, i16, ptr }
%struct.slurm_step_id_msg = type { i64, i32, i32, i32 }
%struct.launch_tasks_response_msg = type { i32, ptr, i32, i32, ptr, %struct.slurm_step_id_msg, ptr }
%struct.MPIR_PROCDESC = type { ptr, ptr, i32 }

@task_state_list = internal global ptr null, align 8
@slurm_conf = external global %struct.slurm_conf_t, align 8
@.str.53 = private unnamed_addr constant [26 x i8] c"Node %s, %d tasks started\00", align 1
@.str.54 = private unnamed_addr constant [32 x i8] c"No tasks started on node %s: %s\00", align 1
@.str.55 = private unnamed_addr constant [40 x i8] c"%s: Could not locate task state for %ps\00", align 1
@__func__._task_start = private unnamed_addr constant [12 x i8] c"_task_start\00", align 1
@MPIR_proctable_size = external global i32, align 4
@.str.56 = private unnamed_addr constant [33 x i8] c"%s: task_id too large (%u >= %d)\00", align 1
@MPIR_proctable = external global ptr, align 8
@.str.57 = private unnamed_addr constant [47 x i8] c"%s: Could not update task state for task ID %u\00", align 1
@.str.58 = private unnamed_addr constant [18 x i8] c"mpir_use_nodeaddr\00", align 1

; Function Attrs: nounwind uwtable
define internal ptr @_mpir_get_host_name(ptr noundef %0) #0 {
  %2 = alloca ptr, align 8
  %3 = alloca ptr, align 8
  store ptr %0, ptr %3, align 8
  %4 = load ptr, ptr getelementptr inbounds nuw (%struct.slurm_conf_t, ptr @slurm_conf, i32 0, i32 90), align 8
  %5 = call ptr @xstrcasestr(ptr noundef %4, ptr noundef @.str.58)
  %6 = icmp ne ptr %5, null
  br i1 %6, label %7, label %10

7:                                                ; preds = %1
  %8 = load ptr, ptr %3, align 8
  %9 = call ptr @slurm_conf_get_nodeaddr(ptr noundef %8)
  store ptr %9, ptr %2, align 8
  br label %13

10:                                               ; preds = %1
  %11 = load ptr, ptr %3, align 8
  %12 = call ptr @xstrdup(ptr noundef %11)
  store ptr %12, ptr %2, align 8
  br label %13

13:                                               ; preds = %10, %7
  %14 = load ptr, ptr %2, align 8
  ret ptr %14
}

; Function Attrs: nounwind uwtable
define internal void @_task_start(ptr noundef %0) #0 {
  %2 = alloca ptr, align 8
  %3 = alloca ptr, align 8
  %4 = alloca i32, align 4
  %5 = alloca i32, align 4
  %6 = alloca i32, align 4
  %7 = alloca ptr, align 8
  store ptr %0, ptr %2, align 8
  call void @llvm.lifetime.start.p0(i64 8, ptr %3) #10
  call void @llvm.lifetime.start.p0(i64 4, ptr %4) #10
  call void @llvm.lifetime.start.p0(i64 4, ptr %5) #10
  call void @llvm.lifetime.start.p0(i64 4, ptr %6) #10
  call void @llvm.lifetime.start.p0(i64 8, ptr %7) #10
  %8 = load ptr, ptr %2, align 8
  %9 = getelementptr inbounds nuw %struct.launch_tasks_response_msg, ptr %8, i32 0, i32 3
  %10 = load i32, ptr %9, align 4
  %11 = icmp ne i32 %10, 0
  br i1 %11, label %12, label %29

12:                                               ; preds = %1
  br label %13

13:                                               ; preds = %12
  br label %14

14:                                               ; preds = %13
  %15 = call i32 @get_log_level()
  %16 = icmp sge i32 %15, 4
  br i1 %16, label %17, label %24

17:                                               ; preds = %14
  %18 = load ptr, ptr %2, align 8
  %19 = getelementptr inbounds nuw %struct.launch_tasks_response_msg, ptr %18, i32 0, i32 1
  %20 = load ptr, ptr %19, align 8
  %21 = load ptr, ptr %2, align 8
  %22 = getelementptr inbounds nuw %struct.launch_tasks_response_msg, ptr %21, i32 0, i32 3
  %23 = load i32, ptr %22, align 4
  call void (i32, ptr, ...) @log_var(i32 noundef 4, ptr noundef @.str.53, ptr noundef %20, i32 noundef %23)
  br label %24

24:                                               ; preds = %17, %14
  br label %25

25:                                               ; preds = %24
  br label %26

26:                                               ; preds = %25
  br label %27

27:                                               ; preds = %26
  br label %28

28:                                               ; preds = %27
  br label %47

29:                                               ; preds = %1
  br label %30

30:                                               ; preds = %29
  br label %31

31:                                               ; preds = %30
  %32 = call i32 @get_log_level()
  %33 = icmp sge i32 %32, 6
  br i1 %33, label %34, label %42

34:                                               ; preds = %31
  %35 = load ptr, ptr %2, align 8
  %36 = getelementptr inbounds nuw %struct.launch_tasks_response_msg, ptr %35, i32 0, i32 1
  %37 = load ptr, ptr %36, align 8
  %38 = load ptr, ptr %2, align 8
  %39 = getelementptr inbounds nuw %struct.launch_tasks_response_msg, ptr %38, i32 0, i32 0
  %40 = load i32, ptr %39, align 8
  %41 = call ptr @slurm_strerror(i32 noundef %40)
  call void (i32, ptr, ...) @log_var(i32 noundef 6, ptr noundef @.str.54, ptr noundef %37, ptr noundef %41)
  br label %42

42:                                               ; preds = %34, %31
  br label %43

43:                                               ; preds = %42
  br label %44

44:                                               ; preds = %43
  br label %45

45:                                               ; preds = %44
  br label %46

46:                                               ; preds = %45
  br label %47

47:                                               ; preds = %46, %28
  %48 = load ptr, ptr %2, align 8
  %49 = getelementptr inbounds nuw %struct.launch_tasks_response_msg, ptr %48, i32 0, i32 5
  %50 = load ptr, ptr @task_state_list, align 8
  %51 = call ptr @task_state_find(ptr noundef %49, ptr noundef %50)
  store ptr %51, ptr %7, align 8
  %52 = load ptr, ptr %7, align 8
  %53 = icmp ne ptr %52, null
  br i1 %53, label %58, label %54

54:                                               ; preds = %47
  %55 = load ptr, ptr %2, align 8
  %56 = getelementptr inbounds nuw %struct.launch_tasks_response_msg, ptr %55, i32 0, i32 5
  %57 = call i32 (ptr, ...) @error(ptr noundef @.str.55, ptr noundef @__func__._task_start, ptr noundef %56)
  br label %58

58:                                               ; preds = %54, %47
  store i32 0, ptr %6, align 4
  br label %59

59:                                               ; preds = %121, %58
  %60 = load i32, ptr %6, align 4
  %61 = load ptr, ptr %2, align 8
  %62 = getelementptr inbounds nuw %struct.launch_tasks_response_msg, ptr %61, i32 0, i32 3
  %63 = load i32, ptr %62, align 4
  %64 = icmp ult i32 %60, %63
  br i1 %64, label %65, label %124

65:                                               ; preds = %59
  %66 = load ptr, ptr %2, align 8
  %67 = getelementptr inbounds nuw %struct.launch_tasks_response_msg, ptr %66, i32 0, i32 6
  %68 = load ptr, ptr %67, align 8
  %69 = load i32, ptr %6, align 4
  %70 = sext i32 %69 to i64
  %71 = getelementptr inbounds i32, ptr %68, i64 %70
  %72 = load i32, ptr %71, align 4
  store i32 %72, ptr %4, align 4
  %73 = load ptr, ptr %7, align 8
  %74 = load i32, ptr %4, align 4
  %75 = call i32 @task_state_global_id(ptr noundef %73, i32 noundef %74)
  store i32 %75, ptr %5, align 4
  %76 = load i32, ptr %5, align 4
  %77 = load i32, ptr @MPIR_proctable_size, align 4
  %78 = icmp uge i32 %76, %77
  br i1 %78, label %79, label %83

79:                                               ; preds = %65
  %80 = load i32, ptr %5, align 4
  %81 = load i32, ptr @MPIR_proctable_size, align 4
  %82 = call i32 (ptr, ...) @error(ptr noundef @.str.56, ptr noundef @__func__._task_start, i32 noundef %80, i32 noundef %81)
  br label %121

83:                                               ; preds = %65
  %84 = load ptr, ptr @MPIR_proctable, align 8
  %85 = load i32, ptr %5, align 4
  %86 = zext i32 %85 to i64
  %87 = getelementptr inbounds nuw %struct.MPIR_PROCDESC, ptr %84, i64 %86
  store ptr %87, ptr %3, align 8
  %88 = load ptr, ptr %2, align 8
  %89 = getelementptr inbounds nuw %struct.launch_tasks_response_msg, ptr %88, i32 0, i32 1
  %90 = load ptr, ptr %89, align 8
  %91 = call ptr @_mpir_get_host_name(ptr noundef %90)
  %92 = load ptr, ptr %3, align 8
  %93 = getelementptr inbounds nuw %struct.MPIR_PROCDESC, ptr %92, i32 0, i32 0
  store ptr %91, ptr %93, align 8
  %94 = load ptr, ptr %2, align 8
  %95 = getelementptr inbounds nuw %struct.launch_tasks_response_msg, ptr %94, i32 0, i32 4
  %96 = load ptr, ptr %95, align 8
  %97 = load i32, ptr %6, align 4
  %98 = sext i32 %97 to i64
  %99 = getelementptr inbounds i32, ptr %96, i64 %98
  %100 = load i32, ptr %99, align 4
  %101 = load ptr, ptr %3, align 8
  %102 = getelementptr inbounds nuw %struct.MPIR_PROCDESC, ptr %101, i32 0, i32 2
  store i32 %100, ptr %102, align 8
  %103 = load ptr, ptr %7, align 8
  %104 = icmp ne ptr %103, null
  br i1 %104, label %108, label %105

105:                                              ; preds = %83
  %106 = load i32, ptr %5, align 4
  %107 = call i32 (ptr, ...) @error(ptr noundef @.str.57, ptr noundef @__func__._task_start, i32 noundef %106)
  br label %120

108:                                              ; preds = %83
  %109 = load ptr, ptr %2, align 8
  %110 = getelementptr inbounds nuw %struct.launch_tasks_response_msg, ptr %109, i32 0, i32 0
  %111 = load i32, ptr %110, align 8
  %112 = icmp eq i32 %111, 0
  br i1 %112, label %113, label %116

113:                                              ; preds = %108
  %114 = load ptr, ptr %7, align 8
  %115 = load i32, ptr %4, align 4
  call void @task_state_update(ptr noundef %114, i32 noundef %115, i32 noundef 0)
  br label %119

116:                                              ; preds = %108
  %117 = load ptr, ptr %7, align 8
  %118 = load i32, ptr %4, align 4
  call void @task_state_update(ptr noundef %117, i32 noundef %118, i32 noundef 1)
  br label %119

119:                                              ; preds = %116, %113
  br label %120

120:                                              ; preds = %119, %105
  br label %121

121:                                              ; preds = %120, %79
  %122 = load i32, ptr %6, align 4
  %123 = add nsw i32 %122, 1
  store i32 %123, ptr %6, align 4
  br label %59, !llvm.loop !18

124:                                              ; preds = %59
  call void @llvm.lifetime.end.p0(i64 8, ptr %7) #10
  call void @llvm.lifetime.end.p0(i64 4, ptr %6) #10
  call void @llvm.lifetime.end.p0(i64 4, ptr %5) #10
  call void @llvm.lifetime.end.p0(i64 4, ptr %4) #10
  call void @llvm.lifetime.end.p0(i64 8, ptr %3) #10
  ret void
}