; Function Attrs: nounwind uwtable
define internal void @_task_start(ptr noundef %0) #0 {
  %2 = getelementptr inbounds nuw i8, ptr %0, i64 20
  %3 = load i32, ptr %2, align 4
  %.not = icmp eq i32 %3, 0
  %4 = tail call i32 @get_log_level() #17
  br i1 %.not, label %11, label %5

5:                                                ; preds = %1
  %6 = icmp sgt i32 %4, 3
  br i1 %6, label %7, label %18

7:                                                ; preds = %5
  %8 = getelementptr inbounds nuw i8, ptr %0, i64 8
  %9 = load ptr, ptr %8, align 8
  %10 = load i32, ptr %2, align 4
  tail call void (i32, ptr, ...) @log_var(i32 noundef 4, ptr noundef nonnull @.str.53, ptr noundef %9, i32 noundef %10) #17
  br label %18

11:                                               ; preds = %1
  %12 = icmp sgt i32 %4, 5
  br i1 %12, label %13, label %18

13:                                               ; preds = %11
  %14 = getelementptr inbounds nuw i8, ptr %0, i64 8
  %15 = load ptr, ptr %14, align 8
  %16 = load i32, ptr %0, align 8
  %17 = tail call ptr @slurm_strerror(i32 noundef %16) #17
  tail call void (i32, ptr, ...) @log_var(i32 noundef 6, ptr noundef nonnull @.str.54, ptr noundef %15, ptr noundef %17) #17
  br label %18

18:                                               ; preds = %11, %13, %5, %7
  %19 = getelementptr inbounds nuw i8, ptr %0, i64 32
  %20 = load ptr, ptr @task_state_list, align 8
  %21 = tail call ptr @task_state_find(ptr noundef nonnull %19, ptr noundef %20) #17
  %.not32 = icmp eq ptr %21, null
  br i1 %.not32, label %22, label %.thread

22:                                               ; preds = %18
  %23 = tail call i32 (ptr, ...) @error(ptr noundef nonnull @.str.55, ptr noundef nonnull @__func__._task_start, ptr noundef nonnull %19) #17
  %24 = load i32, ptr %2, align 4
  %.not35 = icmp eq i32 %24, 0
  br i1 %.not35, label %._crit_edge, label %.lr.ph.split.us.preheader

.thread:                                          ; preds = %18
  %25 = load i32, ptr %2, align 4
  %.not3541 = icmp eq i32 %25, 0
  br i1 %.not3541, label %._crit_edge, label %.lr.ph.split.preheader

.lr.ph.split.preheader:                           ; preds = %.thread
  %26 = getelementptr inbounds nuw i8, ptr %0, i64 56
  %27 = getelementptr inbounds nuw i8, ptr %0, i64 8
  %28 = getelementptr inbounds nuw i8, ptr %0, i64 24
  br label %.lr.ph.split

.lr.ph.split.us.preheader:                        ; preds = %22
  %29 = getelementptr inbounds nuw i8, ptr %0, i64 56
  %30 = getelementptr inbounds nuw i8, ptr %0, i64 8
  %31 = getelementptr inbounds nuw i8, ptr %0, i64 24
  br label %.lr.ph.split.us

.lr.ph.split.us:                                  ; preds = %.lr.ph.split.us.preheader, %55
  %indvars.iv38 = phi i64 [ 0, %.lr.ph.split.us.preheader ], [ %indvars.iv.next39, %55 ]
  %32 = load ptr, ptr %29, align 8
  %33 = getelementptr inbounds nuw i32, ptr %32, i64 %indvars.iv38
  %34 = load i32, ptr %33, align 4
  %35 = tail call i32 @task_state_global_id(ptr noundef null, i32 noundef %34) #17
  %36 = load i32, ptr @MPIR_proctable_size, align 4
  %.not33.us = icmp ult i32 %35, %36
  br i1 %.not33.us, label %39, label %37

37:                                               ; preds = %.lr.ph.split.us
  %38 = tail call i32 (ptr, ...) @error(ptr noundef nonnull @.str.56, ptr noundef nonnull @__func__._task_start, i32 noundef %35, i32 noundef %36) #17
  br label %55

39:                                               ; preds = %.lr.ph.split.us
  %40 = load ptr, ptr @MPIR_proctable, align 8
  %41 = zext i32 %35 to i64
  %42 = getelementptr inbounds nuw %struct.MPIR_PROCDESC, ptr %40, i64 %41
  %43 = load ptr, ptr %30, align 8
  %44 = load ptr, ptr getelementptr inbounds nuw (i8, ptr @slurm_conf, i64 608), align 8
  %45 = tail call ptr @xstrcasestr(ptr noundef %44, ptr noundef nonnull @.str.58) #17
  %.not.i.us = icmp eq ptr %45, null
  br i1 %.not.i.us, label %48, label %46

46:                                               ; preds = %39
  %47 = tail call ptr @slurm_conf_get_nodeaddr(ptr noundef %43) #17
  br label %_mpir_get_host_name.exit.us

48:                                               ; preds = %39
  %49 = tail call ptr @xstrdup(ptr noundef %43) #17
  br label %_mpir_get_host_name.exit.us

_mpir_get_host_name.exit.us:                      ; preds = %48, %46
  %.0.i.us = phi ptr [ %47, %46 ], [ %49, %48 ]
  store ptr %.0.i.us, ptr %42, align 8
  %50 = load ptr, ptr %31, align 8
  %51 = getelementptr inbounds nuw i32, ptr %50, i64 %indvars.iv38
  %52 = load i32, ptr %51, align 4
  %53 = getelementptr inbounds nuw i8, ptr %42, i64 16
  store i32 %52, ptr %53, align 8
  %54 = tail call i32 (ptr, ...) @error(ptr noundef nonnull @.str.57, ptr noundef nonnull @__func__._task_start, i32 noundef %35) #17
  br label %55

55:                                               ; preds = %_mpir_get_host_name.exit.us, %37
  %indvars.iv.next39 = add nuw nsw i64 %indvars.iv38, 1
  %56 = load i32, ptr %2, align 4
  %57 = zext i32 %56 to i64
  %58 = icmp samesign ult i64 %indvars.iv.next39, %57
  br i1 %58, label %.lr.ph.split.us, label %._crit_edge, !llvm.loop !19

.lr.ph.split:                                     ; preds = %.lr.ph.split.preheader, %85
  %indvars.iv = phi i64 [ 0, %.lr.ph.split.preheader ], [ %indvars.iv.next, %85 ]
  %59 = load ptr, ptr %26, align 8
  %60 = getelementptr inbounds nuw i32, ptr %59, i64 %indvars.iv
  %61 = load i32, ptr %60, align 4
  %62 = tail call i32 @task_state_global_id(ptr noundef nonnull %21, i32 noundef %61) #17
  %63 = load i32, ptr @MPIR_proctable_size, align 4
  %.not33 = icmp ult i32 %62, %63
  br i1 %.not33, label %66, label %64

64:                                               ; preds = %.lr.ph.split
  %65 = tail call i32 (ptr, ...) @error(ptr noundef nonnull @.str.56, ptr noundef nonnull @__func__._task_start, i32 noundef %62, i32 noundef %63) #17
  br label %85

66:                                               ; preds = %.lr.ph.split
  %67 = load ptr, ptr @MPIR_proctable, align 8
  %68 = zext i32 %62 to i64
  %69 = getelementptr inbounds nuw %struct.MPIR_PROCDESC, ptr %67, i64 %68
  %70 = load ptr, ptr %27, align 8
  %71 = load ptr, ptr getelementptr inbounds nuw (i8, ptr @slurm_conf, i64 608), align 8
  %72 = tail call ptr @xstrcasestr(ptr noundef %71, ptr noundef nonnull @.str.58) #17
  %.not.i = icmp eq ptr %72, null
  br i1 %.not.i, label %75, label %73

73:                                               ; preds = %66
  %74 = tail call ptr @slurm_conf_get_nodeaddr(ptr noundef %70) #17
  br label %_mpir_get_host_name.exit

75:                                               ; preds = %66
  %76 = tail call ptr @xstrdup(ptr noundef %70) #17
  br label %_mpir_get_host_name.exit

_mpir_get_host_name.exit:                         ; preds = %73, %75
  %.0.i = phi ptr [ %74, %73 ], [ %76, %75 ]
  store ptr %.0.i, ptr %69, align 8
  %77 = load ptr, ptr %28, align 8
  %78 = getelementptr inbounds nuw i32, ptr %77, i64 %indvars.iv
  %79 = load i32, ptr %78, align 4
  %80 = getelementptr inbounds nuw i8, ptr %69, i64 16
  store i32 %79, ptr %80, align 8
  %81 = load i32, ptr %0, align 8
  %82 = icmp eq i32 %81, 0
  br i1 %82, label %83, label %84

83:                                               ; preds = %_mpir_get_host_name.exit
  tail call void @task_state_update(ptr noundef nonnull %21, i32 noundef %61, i32 noundef 0) #17
  br label %85

84:                                               ; preds = %_mpir_get_host_name.exit
  tail call void @task_state_update(ptr noundef nonnull %21, i32 noundef %61, i32 noundef 1) #17
  br label %85

85:                                               ; preds = %84, %83, %64
  %indvars.iv.next = add nuw nsw i64 %indvars.iv, 1
  %86 = load i32, ptr %2, align 4
  %87 = zext i32 %86 to i64
  %88 = icmp samesign ult i64 %indvars.iv.next, %87
  br i1 %88, label %.lr.ph.split, label %._crit_edge, !llvm.loop !19

._crit_edge:                                      ; preds = %85, %55, %.thread, %22
  ret void
}